; Function Attrs: nounwind uwtable
define internal range(i32 0, 2) i32 @test_ecx_tofrom_data_select() #0 {
  %1 = load ptr, ptr @mainctx, align 8, !tbaa !4
  %2 = tail call ptr (ptr, ptr, ptr, ...) @EVP_PKEY_Q_keygen(ptr noundef %1, ptr noundef null, ptr noundef nonnull @.str.77) #7
  %3 = tail call i32 @test_ptr(ptr noundef nonnull @.str.28, i32 noundef 554, ptr noundef nonnull @.str.88, ptr noundef %2) #7
  %.not = icmp eq i32 %3, 0
  br i1 %.not, label %9, label %4

4:                                                ; preds = %0
  %5 = tail call fastcc i32 @do_pkey_tofrom_data_select(ptr noundef %2, ptr noundef nonnull @.str.77)
  %6 = tail call i32 @test_true(ptr noundef nonnull @.str.28, i32 noundef 555, ptr noundef nonnull @.str.89, i32 noundef %5) #7
  %7 = icmp ne i32 %6, 0
  %8 = zext i1 %7 to i32
  br label %9

9:                                                ; preds = %4, %0
  %10 = phi i32 [ 0, %0 ], [ %8, %4 ]
  tail call void @EVP_PKEY_free(ptr noundef %2) #7
  ret i32 %10
}